Archive member included to satisfy reference by file (symbol)

C:/Program Files (x86)/Arm GNU Toolchain arm-none-eabi/13.2 Rel1/bin/../lib/gcc/arm-none-eabi/13.2.1/thumb/v6-m/nofp\libc_nano.a(libc_a-errno.o)
                              ./Libc_Device_Support/syscalls.o (__errno)
C:/Program Files (x86)/Arm GNU Toolchain arm-none-eabi/13.2 Rel1/bin/../lib/gcc/arm-none-eabi/13.2.1/thumb/v6-m/nofp\libc_nano.a(libc_a-init.o)
                              ./Startup/startup.o (__libc_init_array)
C:/Program Files (x86)/Arm GNU Toolchain arm-none-eabi/13.2 Rel1/bin/../lib/gcc/arm-none-eabi/13.2.1/thumb/v6-m/nofp\libc_nano.a(libc_a-impure.o)
                              C:/Program Files (x86)/Arm GNU Toolchain arm-none-eabi/13.2 Rel1/bin/../lib/gcc/arm-none-eabi/13.2.1/thumb/v6-m/nofp\libc_nano.a(libc_a-errno.o) (_impure_ptr)

Discarded input sections

 .data          0x00000000        0x0 Application_Source/main.o
 .data          0x00000000        0x0 Application_Source/drivers/gpio/gpio.o
 .bss           0x00000000        0x0 Application_Source/drivers/gpio/gpio.o
 .data          0x00000000        0x0 Application_Source/drivers/clock/clock.o
 .bss           0x00000000        0x0 Application_Source/drivers/clock/clock.o
 .text          0x00000000       0xfc Application_Source/drivers/adc/adc.o
 .data          0x00000000        0x0 Application_Source/drivers/adc/adc.o
 .bss           0x00000000        0x0 Application_Source/drivers/adc/adc.o
 .debug_info    0x00000000      0x14c Application_Source/drivers/adc/adc.o
 .debug_abbrev  0x00000000       0xd0 Application_Source/drivers/adc/adc.o
 .debug_aranges
                0x00000000       0x20 Application_Source/drivers/adc/adc.o
 .debug_line    0x00000000      0x194 Application_Source/drivers/adc/adc.o
 .debug_str     0x00000000      0x1bc Application_Source/drivers/adc/adc.o
 .comment       0x00000000       0x45 Application_Source/drivers/adc/adc.o
 .debug_frame   0x00000000       0xa8 Application_Source/drivers/adc/adc.o
 .ARM.attributes
                0x00000000       0x2c Application_Source/drivers/adc/adc.o
 .data          0x00000000        0x0 Application_Source/drivers/timers/timer.o
 .bss           0x00000000        0x0 Application_Source/drivers/timers/timer.o
 .text          0x00000000       0xc8 Application_Source/middleware/button/button.o
 .data          0x00000000        0x0 Application_Source/middleware/button/button.o
 .bss           0x00000000        0x2 Application_Source/middleware/button/button.o
 .debug_info    0x00000000      0x1ca Application_Source/middleware/button/button.o
 .debug_abbrev  0x00000000      0x12c Application_Source/middleware/button/button.o
 .debug_aranges
                0x00000000       0x20 Application_Source/middleware/button/button.o
 .debug_line    0x00000000      0x1a9 Application_Source/middleware/button/button.o
 .debug_str     0x00000000      0x22c Application_Source/middleware/button/button.o
 .comment       0x00000000       0x45 Application_Source/middleware/button/button.o
 .debug_frame   0x00000000       0x70 Application_Source/middleware/button/button.o
 .ARM.attributes
                0x00000000       0x2c Application_Source/middleware/button/button.o
 .text          0x00000000        0x0 Application_Source/app/app_logic.o
 .data          0x00000000        0x0 Application_Source/app/app_logic.o
 .bss           0x00000000        0x0 Application_Source/app/app_logic.o
 .debug_line    0x00000000        0x0 Application_Source/app/app_logic.o
 .debug_str     0x00000000       0xb8 Application_Source/app/app_logic.o
 .comment       0x00000000       0x45 Application_Source/app/app_logic.o
 .ARM.attributes
                0x00000000       0x2c Application_Source/app/app_logic.o
 .text          0x00000000        0xa ./Libc_Device_Support/malloc_support.o
 .data          0x00000000        0x0 ./Libc_Device_Support/malloc_support.o
 .bss           0x00000000        0x0 ./Libc_Device_Support/malloc_support.o
 .debug_info    0x00000000       0x39 ./Libc_Device_Support/malloc_support.o
 .debug_abbrev  0x00000000       0x2d ./Libc_Device_Support/malloc_support.o
 .debug_aranges
                0x00000000       0x20 ./Libc_Device_Support/malloc_support.o
 .debug_line    0x00000000       0x5a ./Libc_Device_Support/malloc_support.o
 .debug_str     0x00000000       0xc7 ./Libc_Device_Support/malloc_support.o
 .comment       0x00000000       0x45 ./Libc_Device_Support/malloc_support.o
 .debug_frame   0x00000000       0x2c ./Libc_Device_Support/malloc_support.o
 .ARM.attributes
                0x00000000       0x2c ./Libc_Device_Support/malloc_support.o
 .text          0x00000000        0xa ./Libc_Device_Support/printf_support.o
 .data          0x00000000        0x0 ./Libc_Device_Support/printf_support.o
 .bss           0x00000000        0x0 ./Libc_Device_Support/printf_support.o
 .debug_info    0x00000000       0x39 ./Libc_Device_Support/printf_support.o
 .debug_abbrev  0x00000000       0x2d ./Libc_Device_Support/printf_support.o
 .debug_aranges
                0x00000000       0x20 ./Libc_Device_Support/printf_support.o
 .debug_line    0x00000000       0x5a ./Libc_Device_Support/printf_support.o
 .debug_str     0x00000000       0xc7 ./Libc_Device_Support/printf_support.o
 .comment       0x00000000       0x45 ./Libc_Device_Support/printf_support.o
 .debug_frame   0x00000000       0x2c ./Libc_Device_Support/printf_support.o
 .ARM.attributes
                0x00000000       0x2c ./Libc_Device_Support/printf_support.o
 .text          0x00000000      0x294 ./Libc_Device_Support/syscalls.o
 .data          0x00000000        0x4 ./Libc_Device_Support/syscalls.o
 .bss           0x00000000        0x8 ./Libc_Device_Support/syscalls.o
 .debug_info    0x00000000      0x711 ./Libc_Device_Support/syscalls.o
 .debug_abbrev  0x00000000      0x1c8 ./Libc_Device_Support/syscalls.o
 .debug_aranges
                0x00000000       0x20 ./Libc_Device_Support/syscalls.o
 .debug_line    0x00000000      0x2c1 ./Libc_Device_Support/syscalls.o
 .debug_str     0x00000000      0x3e2 ./Libc_Device_Support/syscalls.o
 .comment       0x00000000       0x45 ./Libc_Device_Support/syscalls.o
 .debug_frame   0x00000000      0x264 ./Libc_Device_Support/syscalls.o
 .ARM.attributes
                0x00000000       0x2c ./Libc_Device_Support/syscalls.o
 .text          0x00000000       0x14 ./Special_Libraries/dsplib.o
 .data          0x00000000        0x0 ./Special_Libraries/dsplib.o
 .bss           0x00000000        0x0 ./Special_Libraries/dsplib.o
 .debug_info    0x00000000       0x47 ./Special_Libraries/dsplib.o
 .debug_abbrev  0x00000000       0x2f ./Special_Libraries/dsplib.o
 .debug_aranges
                0x00000000       0x20 ./Special_Libraries/dsplib.o
 .debug_line    0x00000000       0x56 ./Special_Libraries/dsplib.o
 .debug_str     0x00000000       0xc0 ./Special_Libraries/dsplib.o
 .comment       0x00000000       0x45 ./Special_Libraries/dsplib.o
 .debug_frame   0x00000000       0x48 ./Special_Libraries/dsplib.o
 .ARM.attributes
                0x00000000       0x2c ./Special_Libraries/dsplib.o
 .text          0x00000000       0x54 ./Special_Libraries/reset.o
 .data          0x00000000        0x0 ./Special_Libraries/reset.o
 .bss           0x00000000        0x0 ./Special_Libraries/reset.o
 .debug_info    0x00000000       0xd0 ./Special_Libraries/reset.o
 .debug_abbrev  0x00000000       0x91 ./Special_Libraries/reset.o
 .debug_aranges
                0x00000000       0x20 ./Special_Libraries/reset.o
 .debug_line    0x00000000      0x153 ./Special_Libraries/reset.o
 .debug_str     0x00000000      0x17f ./Special_Libraries/reset.o
 .comment       0x00000000       0x45 ./Special_Libraries/reset.o
 .debug_frame   0x00000000       0x4c ./Special_Libraries/reset.o
 .ARM.attributes
                0x00000000       0x2c ./Special_Libraries/reset.o
 .data          0x00000000        0x0 ./Special_Libraries/cmsis_gcc.o
 .bss           0x00000000        0x0 ./Special_Libraries/cmsis_gcc.o
 .data          0x00000000        0x0 ./Startup/startup.o
 .bss           0x00000000        0x0 ./Startup/startup.o
 .text          0x00000000        0x0 C:/Program Files (x86)/Arm GNU Toolchain arm-none-eabi/13.2 Rel1/bin/../lib/gcc/arm-none-eabi/13.2.1/thumb/v6-m/nofp\libc_nano.a(libc_a-errno.o)
 .data          0x00000000        0x0 C:/Program Files (x86)/Arm GNU Toolchain arm-none-eabi/13.2 Rel1/bin/../lib/gcc/arm-none-eabi/13.2.1/thumb/v6-m/nofp\libc_nano.a(libc_a-errno.o)
 .bss           0x00000000        0x0 C:/Program Files (x86)/Arm GNU Toolchain arm-none-eabi/13.2 Rel1/bin/../lib/gcc/arm-none-eabi/13.2.1/thumb/v6-m/nofp\libc_nano.a(libc_a-errno.o)
 .text.__errno  0x00000000        0xc C:/Program Files (x86)/Arm GNU Toolchain arm-none-eabi/13.2 Rel1/bin/../lib/gcc/arm-none-eabi/13.2.1/thumb/v6-m/nofp\libc_nano.a(libc_a-errno.o)
 .debug_frame   0x00000000       0x20 C:/Program Files (x86)/Arm GNU Toolchain arm-none-eabi/13.2 Rel1/bin/../lib/gcc/arm-none-eabi/13.2.1/thumb/v6-m/nofp\libc_nano.a(libc_a-errno.o)
 .ARM.attributes
                0x00000000       0x2c C:/Program Files (x86)/Arm GNU Toolchain arm-none-eabi/13.2 Rel1/bin/../lib/gcc/arm-none-eabi/13.2.1/thumb/v6-m/nofp\libc_nano.a(libc_a-errno.o)
 .text          0x00000000        0x0 C:/Program Files (x86)/Arm GNU Toolchain arm-none-eabi/13.2 Rel1/bin/../lib/gcc/arm-none-eabi/13.2.1/thumb/v6-m/nofp\libc_nano.a(libc_a-init.o)
 .data          0x00000000        0x0 C:/Program Files (x86)/Arm GNU Toolchain arm-none-eabi/13.2 Rel1/bin/../lib/gcc/arm-none-eabi/13.2.1/thumb/v6-m/nofp\libc_nano.a(libc_a-init.o)
 .bss           0x00000000        0x0 C:/Program Files (x86)/Arm GNU Toolchain arm-none-eabi/13.2 Rel1/bin/../lib/gcc/arm-none-eabi/13.2.1/thumb/v6-m/nofp\libc_nano.a(libc_a-init.o)
 .text          0x00000000        0x0 C:/Program Files (x86)/Arm GNU Toolchain arm-none-eabi/13.2 Rel1/bin/../lib/gcc/arm-none-eabi/13.2.1/thumb/v6-m/nofp\libc_nano.a(libc_a-impure.o)
 .data          0x00000000        0x0 C:/Program Files (x86)/Arm GNU Toolchain arm-none-eabi/13.2 Rel1/bin/../lib/gcc/arm-none-eabi/13.2.1/thumb/v6-m/nofp\libc_nano.a(libc_a-impure.o)
 .bss           0x00000000        0x0 C:/Program Files (x86)/Arm GNU Toolchain arm-none-eabi/13.2 Rel1/bin/../lib/gcc/arm-none-eabi/13.2.1/thumb/v6-m/nofp\libc_nano.a(libc_a-impure.o)
 .data._impure_ptr
                0x00000000        0x4 C:/Program Files (x86)/Arm GNU Toolchain arm-none-eabi/13.2 Rel1/bin/../lib/gcc/arm-none-eabi/13.2.1/thumb/v6-m/nofp\libc_nano.a(libc_a-impure.o)
 .data._impure_data
                0x00000000       0x4c C:/Program Files (x86)/Arm GNU Toolchain arm-none-eabi/13.2 Rel1/bin/../lib/gcc/arm-none-eabi/13.2.1/thumb/v6-m/nofp\libc_nano.a(libc_a-impure.o)
 .ARM.attributes
                0x00000000       0x2c C:/Program Files (x86)/Arm GNU Toolchain arm-none-eabi/13.2 Rel1/bin/../lib/gcc/arm-none-eabi/13.2.1/thumb/v6-m/nofp\libc_nano.a(libc_a-impure.o)

Memory Configuration

Name             Origin             Length             Attributes
FLASH            0x00000000         0x00020000         xr
RAM              0x20000000         0x00004000         xrw
*default*        0x00000000         0xffffffff

Linker script and memory map

LOAD Application_Source/main.o
LOAD Application_Source/drivers/gpio/gpio.o
LOAD Application_Source/drivers/clock/clock.o
LOAD Application_Source/drivers/adc/adc.o
LOAD Application_Source/drivers/timers/timer.o
LOAD Application_Source/middleware/button/button.o
LOAD Application_Source/app/app_logic.o
LOAD ./Libc_Device_Support/malloc_support.o
LOAD ./Libc_Device_Support/printf_support.o
LOAD ./Libc_Device_Support/syscalls.o
LOAD ./Special_Libraries/dsplib.o
LOAD ./Special_Libraries/reset.o
LOAD ./Special_Libraries/cmsis_gcc.o
LOAD ./Startup/startup.o
START GROUP
LOAD C:/Program Files (x86)/Arm GNU Toolchain arm-none-eabi/13.2 Rel1/bin/../lib/gcc/arm-none-eabi/13.2.1/thumb/v6-m/nofp\libgcc.a
LOAD C:/Program Files (x86)/Arm GNU Toolchain arm-none-eabi/13.2 Rel1/bin/../lib/gcc/arm-none-eabi/13.2.1/thumb/v6-m/nofp\libc_nano.a
END GROUP
START GROUP
LOAD C:/Program Files (x86)/Arm GNU Toolchain arm-none-eabi/13.2 Rel1/bin/../lib/gcc/arm-none-eabi/13.2.1/thumb/v6-m/nofp\libgcc.a
LOAD C:/Program Files (x86)/Arm GNU Toolchain arm-none-eabi/13.2 Rel1/bin/../lib/gcc/arm-none-eabi/13.2.1/thumb/v6-m/nofp\libc_nano.a
LOAD C:/Program Files (x86)/Arm GNU Toolchain arm-none-eabi/13.2 Rel1/bin/../lib/gcc/arm-none-eabi/13.2.1/thumb/v6-m/nofp\libnosys.a
END GROUP
START GROUP
LOAD C:/Program Files (x86)/Arm GNU Toolchain arm-none-eabi/13.2 Rel1/bin/../lib/gcc/arm-none-eabi/13.2.1/thumb/v6-m/nofp\libgcc.a
LOAD C:/Program Files (x86)/Arm GNU Toolchain arm-none-eabi/13.2 Rel1/bin/../lib/gcc/arm-none-eabi/13.2.1/thumb/v6-m/nofp\libc_nano.a
LOAD C:/Program Files (x86)/Arm GNU Toolchain arm-none-eabi/13.2 Rel1/bin/../lib/gcc/arm-none-eabi/13.2.1/thumb/v6-m/nofp\libnosys.a
END GROUP
                0x00000000                        __FLASH_START = 0x0
                0x00020000                        __FLASH_SIZE = 0x20000
                0x20000000                        __RAM_START = 0x20000000
                0x00004000                        __RAM_SIZE = 0x4000
                0x00001000                        __STACK_SIZE = 0x1000
                0x00000200                        __HEAP_SIZE = 0x200
                0x20004000                        __STACK_START = (__RAM_START + __RAM_SIZE)
                0x20003000                        __STACK_END = (__STACK_START - __STACK_SIZE)
                0x20002e00                        __HEAP_START = (__STACK_END - __HEAP_SIZE)
                0x20003000                        __HEAP_END = __STACK_END

.text           0x00000000      0xa5c
 *(.isr_vector)
 .isr_vector    0x00000000       0xc0 ./Startup/startup.o
                0x00000000                vector
 *(.user_irq_hdlr)
 *(.text*)
 .text          0x000000c0      0x1bc Application_Source/main.o
                0x000000c0                main
                0x000001e8                ioss_interrupts_gpio_3_IRQHandler
                0x00000238                tcpwm_interrupts_2_IRQHandler
 .text          0x0000027c      0x2d0 Application_Source/drivers/gpio/gpio.o
                0x0000027c                gpio_hsiom_set
                0x00000308                gpio_init
                0x000004ac                gpio_write
                0x00000510                gpio_read
 .text          0x0000054c       0x80 Application_Source/drivers/clock/clock.o
                0x0000054c                clock_div16_init
 .text          0x000005cc      0x298 Application_Source/drivers/timers/timer.o
                0x000005cc                timer_init
                0x000006a8                timer_start
                0x000006f4                timer_expired
                0x00000728                timer_clear
                0x00000760                pwm_init
                0x00000818                pwm_start
 .text          0x00000864      0x100 ./Special_Libraries/cmsis_gcc.o
                0x00000864                enable_irq
                0x00000870                disable_irq
                0x0000087c                NVIC_SetPriority
                0x000008d8                NVIC_ClearPendingIRQ
                0x00000904                NVIC_EnableIRQ
                0x00000930                NVIC_DisableIRQ
 .text          0x00000964       0xb0 ./Startup/startup.o
                0x00000964                _init
                0x0000096e                Reset_handler
                0x00000a04                tcpwm_interrupts_7_IRQHandler
                0x00000a04                pass_0_interrupt_sar_IRQHandler
                0x00000a04                SysTick_Handler
                0x00000a04                PendSV_Handler
                0x00000a04                NMI_Handler
                0x00000a04                ioss_interrupts_gpio_1_IRQHandler
                0x00000a04                cpuss_interrupt_dma_IRQHandler
                0x00000a04                can_interrupt_can_IRQHandler
                0x00000a04                ioss_interrupts_gpio_2_IRQHandler
                0x00000a04                scb_2_interrupt_IRQHandler
                0x00000a04                tcpwm_interrupts_4_IRQHandler
                0x00000a04                cpuss_interrupt_spcif_IRQHandler
                0x00000a04                scb_0_interrupt_IRQHandler
                0x00000a04                tcpwm_interrupts_3_IRQHandler
                0x00000a04                csd_interrupt_IRQHandler
                0x00000a04                tcpwm_interrupts_1_IRQHandler
                0x00000a04                scb_4_interrupt_IRQHandler
                0x00000a04                crypto_interrupt_IRQHandler
                0x00000a04                tcpwm_interrupts_6_IRQHandler
                0x00000a04                ioss_interrupt_gpio_IRQHandler
                0x00000a04                lpcomp_interrupt_IRQHandler
                0x00000a04                scb_1_interrupt_IRQHandler
                0x00000a04                Default_Handler
                0x00000a04                scb_3_interrupt_IRQHandler
                0x00000a04                ioss_interrupts_gpio_0_IRQHandler
                0x00000a04                tcpwm_interrupts_0_IRQHandler
                0x00000a04                SVC_Handler
                0x00000a04                tcpwm_interrupts_5_IRQHandler
                0x00000a04                srss_interrupt_wdt_IRQHandler
                0x00000a04                pass_0_interrupt_ctbs_IRQHandler
                0x00000a04                wco_interrupt_IRQHandler
                0x00000a0c                HRDFLT_Handler
                0x00000a0c                HardFault_Handler
 .text.__libc_init_array
                0x00000a14       0x48 C:/Program Files (x86)/Arm GNU Toolchain arm-none-eabi/13.2 Rel1/bin/../lib/gcc/arm-none-eabi/13.2.1/thumb/v6-m/nofp\libc_nano.a(libc_a-init.o)
                0x00000a14                __libc_init_array
 *(.init*)
 *(.fini*)
                0x00000a5c                        . = ALIGN (0x4)
 *(.rodata .rodata.*)
                0x00000a5c                        . = ALIGN (0x4)
                0x00000a5c                        __etext = .
                0x00000a5c                        _la_data = LOADADDR (.data)

.glue_7         0x00000a5c        0x0
 .glue_7        0x00000a5c        0x0 linker stubs

.glue_7t        0x00000a5c        0x0
 .glue_7t       0x00000a5c        0x0 linker stubs

.vfp11_veneer   0x00000a5c        0x0
 .vfp11_veneer  0x00000a5c        0x0 linker stubs

.v4_bx          0x00000a5c        0x0
 .v4_bx         0x00000a5c        0x0 linker stubs

.iplt           0x00000a5c        0x0
 .iplt          0x00000a5c        0x0 Application_Source/main.o

.rel.dyn        0x00000a5c        0x0
 .rel.iplt      0x00000a5c        0x0 Application_Source/main.o

.data           0x20000000        0x0 load address 0x00000a5c
                0x20000000                        __data_start = .
 *(.data*)
                0x20000000                        . = ALIGN (0x4)
                0x20000000                        __data_end = .

.igot.plt       0x20000000        0x0 load address 0x00000a5c
 .igot.plt      0x20000000        0x0 Application_Source/main.o

.bss            0x20000000        0x4 load address 0x00000a5c
                0x20000000                        __bss_start__ = .
 *(.bss)
 .bss           0x20000000        0x4 Application_Source/main.o
                0x20000000                button_pressed
                0x20000001                timer_flag
                0x20000002                timer_count
 *(.bss.*)
 *(COMMON)
                0x20000004                        . = ALIGN (0x4)
                0x20000004                        __bss_end__ = .
                0x20000004                        . = ALIGN (0x4)
                0x20000004                        end = .
                0x20000004                        __end__ = .

Heap            0x20000004     0x2dfc load address 0x00000a5c
                0x20002e00                        . = ABSOLUTE (__HEAP_START)
 *fill*         0x20000004     0x2dfc 
 *(.heap)
                0x20002e00                        . = ALIGN (0x4)

Stack           0x20002e00      0x200 load address 0x00000a5c
                0x20003000                        . = ABSOLUTE (__STACK_END)
 *fill*         0x20002e00      0x200 
 *(.stack)
OUTPUT(bin/BareMetal.elf elf32-littlearm)
LOAD linker stubs

.debug_info     0x00000000      0xcae
 .debug_info    0x00000000      0x3a8 Application_Source/main.o
 .debug_info    0x000003a8      0x2a7 Application_Source/drivers/gpio/gpio.o
 .debug_info    0x0000064f       0xef Application_Source/drivers/clock/clock.o
 .debug_info    0x0000073e      0x1ab Application_Source/drivers/timers/timer.o
 .debug_info    0x000008e9      0x226 ./Special_Libraries/cmsis_gcc.o
 .debug_info    0x00000b0f      0x19f ./Startup/startup.o

.debug_abbrev   0x00000000      0x590
 .debug_abbrev  0x00000000      0x156 Application_Source/main.o
 .debug_abbrev  0x00000156      0x12c Application_Source/drivers/gpio/gpio.o
 .debug_abbrev  0x00000282       0x65 Application_Source/drivers/clock/clock.o
 .debug_abbrev  0x000002e7       0xb0 Application_Source/drivers/timers/timer.o
 .debug_abbrev  0x00000397       0xe0 ./Special_Libraries/cmsis_gcc.o
 .debug_abbrev  0x00000477      0x119 ./Startup/startup.o

.debug_aranges  0x00000000       0xc0
 .debug_aranges
                0x00000000       0x20 Application_Source/main.o
 .debug_aranges
                0x00000020       0x20 Application_Source/drivers/gpio/gpio.o
 .debug_aranges
                0x00000040       0x20 Application_Source/drivers/clock/clock.o
 .debug_aranges
                0x00000060       0x20 Application_Source/drivers/timers/timer.o
 .debug_aranges
                0x00000080       0x20 ./Special_Libraries/cmsis_gcc.o
 .debug_aranges
                0x000000a0       0x20 ./Startup/startup.o

.debug_line     0x00000000      0xb85
 .debug_line    0x00000000      0x262 Application_Source/main.o
 .debug_line    0x00000262      0x25b Application_Source/drivers/gpio/gpio.o
 .debug_line    0x000004bd      0x169 Application_Source/drivers/clock/clock.o
 .debug_line    0x00000626      0x205 Application_Source/drivers/timers/timer.o
 .debug_line    0x0000082b      0x1ca ./Special_Libraries/cmsis_gcc.o
 .debug_line    0x000009f5      0x190 ./Startup/startup.o

.debug_str      0x00000000      0x51e
 .debug_str     0x00000000      0x51e Application_Source/main.o
                                0x32a (size before relaxing)
 .debug_str     0x0000051e      0x26e Application_Source/drivers/gpio/gpio.o
 .debug_str     0x0000051e      0x1b0 Application_Source/drivers/clock/clock.o
 .debug_str     0x0000051e      0x1cd Application_Source/drivers/timers/timer.o
 .debug_str     0x0000051e      0x217 ./Special_Libraries/cmsis_gcc.o
 .debug_str     0x0000051e      0x1da ./Startup/startup.o

.comment        0x00000000       0x44
 .comment       0x00000000       0x44 Application_Source/main.o
                                 0x45 (size before relaxing)
 .comment       0x00000044       0x45 Application_Source/drivers/gpio/gpio.o
 .comment       0x00000044       0x45 Application_Source/drivers/clock/clock.o
 .comment       0x00000044       0x45 Application_Source/drivers/timers/timer.o
 .comment       0x00000044       0x45 ./Special_Libraries/cmsis_gcc.o
 .comment       0x00000044       0x45 ./Startup/startup.o

.ARM.attributes
                0x00000000       0x2c
 .ARM.attributes
                0x00000000       0x2c Application_Source/main.o
 .ARM.attributes
                0x0000002c       0x2c Application_Source/drivers/gpio/gpio.o
 .ARM.attributes
                0x00000058       0x2c Application_Source/drivers/clock/clock.o
 .ARM.attributes
                0x00000084       0x2c Application_Source/drivers/timers/timer.o
 .ARM.attributes
                0x000000b0       0x2c ./Special_Libraries/cmsis_gcc.o
 .ARM.attributes
                0x000000dc       0x2c ./Startup/startup.o
 .ARM.attributes
                0x00000108       0x2c C:/Program Files (x86)/Arm GNU Toolchain arm-none-eabi/13.2 Rel1/bin/../lib/gcc/arm-none-eabi/13.2.1/thumb/v6-m/nofp\libc_nano.a(libc_a-init.o)

.debug_frame    0x00000000      0x370
 .debug_frame   0x00000000       0x68 Application_Source/main.o
 .debug_frame   0x00000068       0x90 Application_Source/drivers/gpio/gpio.o
 .debug_frame   0x000000f8       0x30 Application_Source/drivers/clock/clock.o
 .debug_frame   0x00000128       0xd0 Application_Source/drivers/timers/timer.o
 .debug_frame   0x000001f8       0xc8 ./Special_Libraries/cmsis_gcc.o
 .debug_frame   0x000002c0       0x84 ./Startup/startup.o
 .debug_frame   0x00000344       0x2c C:/Program Files (x86)/Arm GNU Toolchain arm-none-eabi/13.2 Rel1/bin/../lib/gcc/arm-none-eabi/13.2.1/thumb/v6-m/nofp\libc_nano.a(libc_a-init.o)
